target datalayout = "e-m:e-p270:32:32-p271:32:32-p272:64:64-i64:64-i128:128-f80:128-n8:16:32:64-S128"
target triple = "x86_64-pc-linux-gnu"

%"class.std::__shared_count" = type { ptr }
%"class.cvc5::parser::Cmd" = type { ptr, ptr }
%"class.std::vector" = type { %"struct.std::_Vector_base" }
%"struct.std::_Vector_base" = type { %"struct.std::_Vector_base<cvc5::internal::NodeTemplate<true>, std::allocator<cvc5::internal::NodeTemplate<true>>>::_Vector_impl" }
%"struct.std::_Vector_base<cvc5::internal::NodeTemplate<true>, std::allocator<cvc5::internal::NodeTemplate<true>>>::_Vector_impl" = type { %"struct.std::_Vector_base<cvc5::internal::NodeTemplate<true>, std::allocator<cvc5::internal::NodeTemplate<true>>>::_Vector_impl_data" }
%"struct.std::_Vector_base<cvc5::internal::NodeTemplate<true>, std::allocator<cvc5::internal::NodeTemplate<true>>>::_Vector_impl_data" = type { ptr, ptr, ptr }
%"class.cvc5::Result" = type { %"class.std::shared_ptr.271" }
%"class.std::shared_ptr.271" = type { %"class.std::__shared_ptr.272" }
%"class.std::__shared_ptr.272" = type { ptr, %"class.std::__shared_count" }
%"class.cvc5::parser::CheckSatAssumingCommand" = type { %"class.cvc5::parser::Cmd", %"class.std::vector.245", %"class.cvc5::Result" }
%"class.std::vector.245" = type { %"struct.std::_Vector_base.246" }
%"struct.std::_Vector_base.246" = type { %"struct.std::_Vector_base<cvc5::Term, std::allocator<cvc5::Term>>::_Vector_impl" }
%"struct.std::_Vector_base<cvc5::Term, std::allocator<cvc5::Term>>::_Vector_impl" = type { %"struct.std::_Vector_base<cvc5::Term, std::allocator<cvc5::Term>>::_Vector_impl_data" }
%"struct.std::_Vector_base<cvc5::Term, std::allocator<cvc5::Term>>::_Vector_impl_data" = type { ptr, ptr, ptr }

; Function Attrs: mustprogress uwtable
define void @_ZN4cvc56parser3Cmd17termVectorToNodesERKSt6vectorINS_4TermESaIS3_EE(ptr dead_on_unwind noalias writable sret(%"class.std::vector") align 8 %0, ptr noundef nonnull align 8 dereferenceable(24) %1) #4 align 2 {
  %3 = alloca ptr, align 8
  %4 = alloca ptr, align 8
  store ptr %0, ptr %3, align 8
  store ptr %1, ptr %4, align 8, !tbaa !50
  %5 = load ptr, ptr %4, align 8, !tbaa !50
  call void @_ZN4cvc54Term17termVectorToNodesERKSt6vectorIS0_SaIS0_EE(ptr dead_on_unwind writable sret(%"class.std::vector") align 8 %0, ptr noundef nonnull align 8 dereferenceable(24) %5)
  ret void
}

; Function Attrs: mustprogress uwtable
define void @_ZNK4cvc56parser23CheckSatAssumingCommand8toStreamERSo(ptr noundef nonnull align 8 dereferenceable(56) %0, ptr noundef nonnull align 8 dereferenceable(8) %1) unnamed_addr #4 align 2 personality ptr @__gxx_personality_v0 {
  %3 = alloca ptr, align 8
  %4 = alloca ptr, align 8
  %5 = alloca %"class.std::vector", align 8
  %6 = alloca ptr, align 8
  %7 = alloca i32, align 4
  store ptr %0, ptr %3, align 8, !tbaa !122
  store ptr %1, ptr %4, align 8, !tbaa !14
  %8 = load ptr, ptr %3, align 8
  %9 = load ptr, ptr %4, align 8, !tbaa !14
  %10 = call noundef ptr @_ZN4cvc58internal7Printer10getPrinterERSo(ptr noundef nonnull align 8 dereferenceable(8) %9)
  %11 = load ptr, ptr %4, align 8, !tbaa !14
  call void @llvm.lifetime.start.p0(i64 24, ptr %5) #3
  %12 = getelementptr inbounds nuw %"class.cvc5::parser::CheckSatAssumingCommand", ptr %8, i32 0, i32 1
  call void @_ZN4cvc56parser3Cmd17termVectorToNodesERKSt6vectorINS_4TermESaIS3_EE(ptr dead_on_unwind writable sret(%"class.std::vector") align 8 %5, ptr noundef nonnull align 8 dereferenceable(24) %12)
  %13 = load ptr, ptr %10, align 8, !tbaa !12
  %14 = getelementptr inbounds ptr, ptr %13, i64 27
  %15 = load ptr, ptr %14, align 8
  invoke void %15(ptr noundef nonnull align 8 dereferenceable(8) %10, ptr noundef nonnull align 8 dereferenceable(8) %11, ptr noundef nonnull align 8 dereferenceable(24) %5)
          to label %16 unwind label %17

16:                                               ; preds = %2
  call void @_ZNSt6vectorIN4cvc58internal12NodeTemplateILb1EEESaIS3_EED2Ev(ptr noundef nonnull align 8 dereferenceable(24) %5) #3
  call void @llvm.lifetime.end.p0(i64 24, ptr %5) #3
  ret void

17:                                               ; preds = %2
  %18 = landingpad { ptr, i32 }
          cleanup
  %19 = extractvalue { ptr, i32 } %18, 0
  store ptr %19, ptr %6, align 8
  %20 = extractvalue { ptr, i32 } %18, 1
  store i32 %20, ptr %7, align 4
  call void @_ZNSt6vectorIN4cvc58internal12NodeTemplateILb1EEESaIS3_EED2Ev(ptr noundef nonnull align 8 dereferenceable(24) %5) #3
  call void @llvm.lifetime.end.p0(i64 24, ptr %5) #3
  br label %21

21:                                               ; preds = %17
  %22 = load ptr, ptr %6, align 8
  %23 = load i32, ptr %7, align 4
  %24 = insertvalue { ptr, i32 } poison, ptr %22, 0
  %25 = insertvalue { ptr, i32 } %24, i32 %23, 1
  resume { ptr, i32 } %25
}