; Function Attrs: mustprogress uwtable
define void @_ZNK4cvc56parser23CheckSatAssumingCommand8toStreamERSo(ptr noundef nonnull align 8 dereferenceable(56) %0, ptr noundef nonnull align 8 dereferenceable(8) %1) unnamed_addr #3 align 2 personality ptr @__gxx_personality_v0 {
  %3 = alloca %"class.std::vector", align 8
  %4 = tail call noundef ptr @_ZN4cvc58internal7Printer10getPrinterERSo(ptr noundef nonnull align 8 dereferenceable(8) %1)
  call void @llvm.lifetime.start.p0(i64 24, ptr nonnull %3) #33
  %5 = getelementptr inbounds nuw i8, ptr %0, i64 16
  call void @_ZN4cvc54Term17termVectorToNodesERKSt6vectorIS0_SaIS0_EE(ptr dead_on_unwind nonnull writable sret(%"class.std::vector") align 8 %3, ptr noundef nonnull align 8 dereferenceable(24) %5)
  %6 = load ptr, ptr %4, align 8, !tbaa !6
  %7 = getelementptr inbounds nuw i8, ptr %6, i64 216
  %8 = load ptr, ptr %7, align 8
  invoke void %8(ptr noundef nonnull align 8 dereferenceable(8) %4, ptr noundef nonnull align 8 dereferenceable(8) %1, ptr noundef nonnull align 8 dereferenceable(24) %3)
          to label %9 unwind label %34

9:                                                ; preds = %2
  %10 = load ptr, ptr %3, align 8, !tbaa !118
  %11 = getelementptr inbounds nuw i8, ptr %3, i64 8
  %12 = load ptr, ptr %11, align 8, !tbaa !120
  %.not4.i.i.i.i = icmp eq ptr %10, %12
  br i1 %.not4.i.i.i.i, label %_ZSt8_DestroyIPN4cvc58internal12NodeTemplateILb1EEES3_EvT_S5_RSaIT0_E.exit.i, label %.lr.ph.i.i.i.i

.lr.ph.i.i.i.i:                                   ; preds = %9, %_ZSt8_DestroyIN4cvc58internal12NodeTemplateILb1EEEEvPT_.exit.i.i.i.i
  %.05.i.i.i.i = phi ptr [ %26, %_ZSt8_DestroyIN4cvc58internal12NodeTemplateILb1EEEEvPT_.exit.i.i.i.i ], [ %10, %9 ]
  %13 = load ptr, ptr %.05.i.i.i.i, align 8, !tbaa !64
  %14 = load i64, ptr %13, align 8
  %15 = and i64 %14, 1152920405095219200
  %.not.i.i.i.i.i.i.i = icmp eq i64 %15, 1152920405095219200
  br i1 %.not.i.i.i.i.i.i.i, label %_ZSt8_DestroyIN4cvc58internal12NodeTemplateILb1EEEEvPT_.exit.i.i.i.i, label %16, !prof !32

16:                                               ; preds = %.lr.ph.i.i.i.i
  %17 = add i64 %14, 1152920405095219200
  %18 = and i64 %17, 1152920405095219200
  %19 = and i64 %14, -1152920405095219201
  %20 = or disjoint i64 %18, %19
  store i64 %20, ptr %13, align 8
  %21 = icmp eq i64 %18, 0
  br i1 %21, label %22, label %_ZSt8_DestroyIN4cvc58internal12NodeTemplateILb1EEEEvPT_.exit.i.i.i.i, !prof !32

22:                                               ; preds = %16
  invoke void @_ZN4cvc58internal4expr9NodeValue15markForDeletionEv(ptr noundef nonnull align 8 dereferenceable(24) %13)
          to label %_ZSt8_DestroyIN4cvc58internal12NodeTemplateILb1EEEEvPT_.exit.i.i.i.i unwind label %23

23:                                               ; preds = %22
  %24 = landingpad { ptr, i32 }
          catch ptr null
  %25 = extractvalue { ptr, i32 } %24, 0
  call void @__clang_call_terminate(ptr %25) #35
  unreachable

_ZSt8_DestroyIN4cvc58internal12NodeTemplateILb1EEEEvPT_.exit.i.i.i.i: ; preds = %22, %16, %.lr.ph.i.i.i.i
  %26 = getelementptr inbounds nuw i8, ptr %.05.i.i.i.i, i64 8
  %.not.i.i.i.i = icmp eq ptr %26, %12
  br i1 %.not.i.i.i.i, label %_ZSt8_DestroyIPN4cvc58internal12NodeTemplateILb1EEES3_EvT_S5_RSaIT0_E.exitthread-pre-split.i, label %.lr.ph.i.i.i.i, !llvm.loop !121

_ZSt8_DestroyIPN4cvc58internal12NodeTemplateILb1EEES3_EvT_S5_RSaIT0_E.exitthread-pre-split.i: ; preds = %_ZSt8_DestroyIN4cvc58internal12NodeTemplateILb1EEEEvPT_.exit.i.i.i.i
  %.pr.i = load ptr, ptr %3, align 8, !tbaa !118
  br label %_ZSt8_DestroyIPN4cvc58internal12NodeTemplateILb1EEES3_EvT_S5_RSaIT0_E.exit.i

_ZSt8_DestroyIPN4cvc58internal12NodeTemplateILb1EEES3_EvT_S5_RSaIT0_E.exit.i: ; preds = %_ZSt8_DestroyIPN4cvc58internal12NodeTemplateILb1EEES3_EvT_S5_RSaIT0_E.exitthread-pre-split.i, %9
  %27 = phi ptr [ %.pr.i, %_ZSt8_DestroyIPN4cvc58internal12NodeTemplateILb1EEES3_EvT_S5_RSaIT0_E.exitthread-pre-split.i ], [ %10, %9 ]
  %.not.i.i.i = icmp eq ptr %27, null
  br i1 %.not.i.i.i, label %_ZNSt6vectorIN4cvc58internal12NodeTemplateILb1EEESaIS3_EED2Ev.exit, label %28

28:                                               ; preds = %_ZSt8_DestroyIPN4cvc58internal12NodeTemplateILb1EEES3_EvT_S5_RSaIT0_E.exit.i
  %29 = getelementptr inbounds nuw i8, ptr %3, i64 16
  %30 = load ptr, ptr %29, align 8, !tbaa !122
  %31 = ptrtoint ptr %30 to i64
  %32 = ptrtoint ptr %27 to i64
  %33 = sub i64 %31, %32
  call void @_ZdlPvm(ptr noundef nonnull %27, i64 noundef %33) #34
  br label %_ZNSt6vectorIN4cvc58internal12NodeTemplateILb1EEESaIS3_EED2Ev.exit

_ZNSt6vectorIN4cvc58internal12NodeTemplateILb1EEESaIS3_EED2Ev.exit: ; preds = %_ZSt8_DestroyIPN4cvc58internal12NodeTemplateILb1EEES3_EvT_S5_RSaIT0_E.exit.i, %28
  call void @llvm.lifetime.end.p0(i64 24, ptr nonnull %3) #33
  ret void

34:                                               ; preds = %2
  %35 = landingpad { ptr, i32 }
          cleanup
  call void @_ZNSt6vectorIN4cvc58internal12NodeTemplateILb1EEESaIS3_EED2Ev(ptr noundef nonnull align 8 dereferenceable(24) %3) #33
  call void @llvm.lifetime.end.p0(i64 24, ptr nonnull %3) #33
  resume { ptr, i32 } %35
}